; Function Attrs: nounwind uwtable
define void @dt_database_optimize(ptr noundef readonly captures(none) %0) local_unnamed_addr #0 {
  %2 = getelementptr inbounds nuw i8, ptr %0, i64 8
  %3 = load ptr, ptr %2, align 8, !tbaa !23
  %4 = tail call i32 @g_strcmp0(ptr noundef %3, ptr noundef nonnull @.str.23) #18
  %.not.i = icmp eq i32 %4, 0
  br i1 %.not.i, label %_is_mem_db.exit.thread, label %_is_mem_db.exit

_is_mem_db.exit:                                  ; preds = %1
  %5 = getelementptr inbounds nuw i8, ptr %0, i64 24
  %6 = load ptr, ptr %5, align 8, !tbaa !24
  %7 = tail call i32 @g_strcmp0(ptr noundef %6, ptr noundef nonnull @.str.23) #18
  %.not2.i.not = icmp eq i32 %7, 0
  br i1 %.not2.i.not, label %_is_mem_db.exit.thread, label %8

8:                                                ; preds = %_is_mem_db.exit
  %9 = load i32, ptr getelementptr inbounds nuw (i8, ptr @darktable, i64 8), align 8, !tbaa !25
  %10 = and i32 %9, 256
  %.not2 = icmp eq i32 %10, 0
  br i1 %.not2, label %12, label %11

11:                                               ; preds = %8
  tail call void (ptr, ...) @dt_print_ext(ptr noundef nonnull @.str.89, ptr noundef nonnull @.str.90, i32 noundef 5016, ptr noundef nonnull @__FUNCTION__.dt_database_optimize, ptr noundef nonnull @.str.103) #18
  br label %12

12:                                               ; preds = %8, %11
  %13 = getelementptr inbounds nuw i8, ptr %0, i64 40
  %14 = load ptr, ptr %13, align 8, !tbaa !6
  %15 = tail call i32 @sqlite3_exec(ptr noundef %14, ptr noundef nonnull @.str.103, ptr noundef null, ptr noundef null, ptr noundef null) #18
  %.not3 = icmp eq i32 %15, 0
  br i1 %.not3, label %_is_mem_db.exit.thread, label %16

16:                                               ; preds = %12
  %17 = load ptr, ptr @stderr, align 8, !tbaa !71
  %18 = load ptr, ptr getelementptr inbounds nuw (i8, ptr @darktable, i64 136), align 8, !tbaa !73
  %.not.i4 = icmp eq ptr %18, null
  br i1 %.not.i4, label %dt_database_get.exit, label %19

19:                                               ; preds = %16
  %20 = getelementptr inbounds nuw i8, ptr %18, i64 40
  %21 = load ptr, ptr %20, align 8, !tbaa !6
  br label %dt_database_get.exit

dt_database_get.exit:                             ; preds = %16, %19
  %22 = phi ptr [ %21, %19 ], [ null, %16 ]
  %23 = tail call ptr @sqlite3_errmsg(ptr noundef %22) #18
  %24 = tail call i32 (ptr, ptr, ...) @fprintf(ptr noundef %17, ptr noundef nonnull @.str.91, ptr noundef nonnull @.str.90, i32 noundef 5016, ptr noundef nonnull @__FUNCTION__.dt_database_optimize, ptr noundef nonnull @.str.103, ptr noundef %23) #23
  br label %_is_mem_db.exit.thread

_is_mem_db.exit.thread:                           ; preds = %1, %12, %dt_database_get.exit, %_is_mem_db.exit
  ret void
}